target datalayout = "e-m:e-p270:32:32-p271:32:32-p272:64:64-i64:64-i128:128-f80:128-n8:16:32:64-S128"
target triple = "x86_64-pc-linux-gnu"

@proto_mac_mgmt_msg_ulmap_decoder = internal global i32 0, align 4
@.str.10 = private unnamed_addr constant [29 x i8] c"Compressed UL-MAP (%u bytes)\00", align 1
@ett_306 = internal global i32 0, align 4
@hf_ulmap_ucd_count = internal global i32 0, align 4
@hf_ulmap_alloc_start_time = internal global i32 0, align 4
@hf_ulmap_ofdma_sym = internal global i32 0, align 4
@ett_306_ul = internal global i32 0, align 4
@.str.11 = private unnamed_addr constant [22 x i8] c"UL-MAP IEs (%u bytes)\00", align 1
@hf_ulmap_padding = internal global i32 0, align 4
@.str.12 = private unnamed_addr constant [15 x i8] c"Padding nibble\00", align 1

; Function Attrs: null_pointer_is_valid sspstrong uwtable
define hidden i32 @wimax_decode_ulmapc(ptr noundef %0, ptr noundef %1, i32 noundef %2, i32 noundef %3, ptr noundef %4) #1 {
  %6 = alloca ptr, align 8
  %7 = alloca ptr, align 8
  %8 = alloca i32, align 4
  %9 = alloca i32, align 4
  %10 = alloca ptr, align 8
  %11 = alloca i32, align 4
  %12 = alloca i32, align 4
  %13 = alloca ptr, align 8
  %14 = alloca ptr, align 8
  %15 = alloca ptr, align 8
  store ptr %0, ptr %6, align 8
  store ptr %1, ptr %7, align 8
  store i32 %2, ptr %8, align 4
  store i32 %3, ptr %9, align 4
  store ptr %4, ptr %10, align 8
  call void @llvm.lifetime.start.p0(i64 4, ptr %11) #5
  call void @llvm.lifetime.start.p0(i64 4, ptr %12) #5
  call void @llvm.lifetime.start.p0(i64 8, ptr %13) #5
  store ptr null, ptr %13, align 8
  call void @llvm.lifetime.start.p0(i64 8, ptr %14) #5
  store ptr null, ptr %14, align 8
  call void @llvm.lifetime.start.p0(i64 8, ptr %15) #5
  store ptr null, ptr %15, align 8
  %16 = load i32, ptr %8, align 4
  store i32 %16, ptr %11, align 4
  %17 = load ptr, ptr %6, align 8
  %18 = load i32, ptr @proto_mac_mgmt_msg_ulmap_decoder, align 4
  %19 = load ptr, ptr %10, align 8
  %20 = load i32, ptr %8, align 4
  %21 = sdiv i32 %20, 2
  %22 = load i32, ptr %8, align 4
  %23 = and i32 %22, 1
  %24 = add i32 1, %23
  %25 = load i32, ptr %9, align 4
  %26 = load i32, ptr %8, align 4
  %27 = sub i32 %25, %26
  %28 = add i32 %24, %27
  %29 = sdiv i32 %28, 2
  %30 = load i32, ptr %9, align 4
  %31 = load i32, ptr %8, align 4
  %32 = sub i32 %30, %31
  %33 = sdiv i32 %32, 2
  %34 = call ptr (ptr, i32, ptr, i32, i32, ptr, ...) @proto_tree_add_protocol_format(ptr noundef %17, i32 noundef %18, ptr noundef %19, i32 noundef %21, i32 noundef %29, ptr noundef @.str.10, i32 noundef %33)
  store ptr %34, ptr %13, align 8
  %35 = load ptr, ptr %13, align 8
  %36 = load i32, ptr @ett_306, align 4
  %37 = call ptr @proto_item_add_subtree(ptr noundef %35, i32 noundef %36)
  store ptr %37, ptr %14, align 8
  %38 = load i32, ptr %11, align 4
  %39 = and i32 %38, 1
  %40 = icmp ne i32 %39, 0
  br i1 %40, label %41, label %49

41:                                               ; preds = %5
  %42 = load ptr, ptr %10, align 8
  %43 = load i32, ptr %11, align 4
  %44 = sdiv i32 %43, 2
  %45 = call zeroext i16 @tvb_get_ntohs(ptr noundef %42, i32 noundef %44)
  %46 = zext i16 %45 to i32
  %47 = ashr i32 %46, 4
  %48 = and i32 %47, 255
  br label %55

49:                                               ; preds = %5
  %50 = load ptr, ptr %10, align 8
  %51 = load i32, ptr %11, align 4
  %52 = sdiv i32 %51, 2
  %53 = call zeroext i8 @tvb_get_uint8(ptr noundef %50, i32 noundef %52)
  %54 = zext i8 %53 to i32
  br label %55

55:                                               ; preds = %49, %41
  %56 = phi i32 [ %48, %41 ], [ %54, %49 ]
  store i32 %56, ptr %12, align 4
  %57 = load ptr, ptr %14, align 8
  %58 = load i32, ptr @hf_ulmap_ucd_count, align 4
  %59 = load ptr, ptr %10, align 8
  %60 = load i32, ptr %11, align 4
  %61 = sdiv i32 %60, 2
  %62 = load i32, ptr %11, align 4
  %63 = and i32 %62, 1
  %64 = add i32 1, %63
  %65 = add i32 %64, 2
  %66 = sdiv i32 %65, 2
  %67 = load i32, ptr %12, align 4
  %68 = call ptr @proto_tree_add_uint(ptr noundef %57, i32 noundef %58, ptr noundef %59, i32 noundef %61, i32 noundef %66, i32 noundef %67)
  %69 = load i32, ptr %11, align 4
  %70 = add i32 %69, 2
  store i32 %70, ptr %11, align 4
  %71 = load i32, ptr %11, align 4
  %72 = and i32 %71, 1
  %73 = icmp ne i32 %72, 0
  br i1 %73, label %74, label %89

74:                                               ; preds = %55
  %75 = load ptr, ptr %10, align 8
  %76 = load i32, ptr %11, align 4
  %77 = sdiv i32 %76, 2
  %78 = call i32 @tvb_get_ntohl(ptr noundef %75, i32 noundef %77)
  %79 = shl i32 %78, 4
  %80 = load ptr, ptr %10, align 8
  %81 = load i32, ptr %11, align 4
  %82 = sdiv i32 %81, 2
  %83 = add i32 %82, 4
  %84 = call zeroext i8 @tvb_get_uint8(ptr noundef %80, i32 noundef %83)
  %85 = zext i8 %84 to i32
  %86 = ashr i32 %85, 4
  %87 = and i32 %86, 15
  %88 = or i32 %79, %87
  br label %94

89:                                               ; preds = %55
  %90 = load ptr, ptr %10, align 8
  %91 = load i32, ptr %11, align 4
  %92 = sdiv i32 %91, 2
  %93 = call i32 @tvb_get_ntohl(ptr noundef %90, i32 noundef %92)
  br label %94

94:                                               ; preds = %89, %74
  %95 = phi i32 [ %88, %74 ], [ %93, %89 ]
  store i32 %95, ptr %12, align 4
  %96 = load ptr, ptr %14, align 8
  %97 = load i32, ptr @hf_ulmap_alloc_start_time, align 4
  %98 = load ptr, ptr %10, align 8
  %99 = load i32, ptr %11, align 4
  %100 = sdiv i32 %99, 2
  %101 = load i32, ptr %11, align 4
  %102 = and i32 %101, 1
  %103 = add i32 1, %102
  %104 = add i32 %103, 8
  %105 = sdiv i32 %104, 2
  %106 = load i32, ptr %12, align 4
  %107 = call ptr @proto_tree_add_uint(ptr noundef %96, i32 noundef %97, ptr noundef %98, i32 noundef %100, i32 noundef %105, i32 noundef %106)
  %108 = load i32, ptr %11, align 4
  %109 = add i32 %108, 8
  store i32 %109, ptr %11, align 4
  %110 = load i32, ptr %11, align 4
  %111 = and i32 %110, 1
  %112 = icmp ne i32 %111, 0
  br i1 %112, label %113, label %121

113:                                              ; preds = %94
  %114 = load ptr, ptr %10, align 8
  %115 = load i32, ptr %11, align 4
  %116 = sdiv i32 %115, 2
  %117 = call zeroext i16 @tvb_get_ntohs(ptr noundef %114, i32 noundef %116)
  %118 = zext i16 %117 to i32
  %119 = ashr i32 %118, 4
  %120 = and i32 %119, 255
  br label %127

121:                                              ; preds = %94
  %122 = load ptr, ptr %10, align 8
  %123 = load i32, ptr %11, align 4
  %124 = sdiv i32 %123, 2
  %125 = call zeroext i8 @tvb_get_uint8(ptr noundef %122, i32 noundef %124)
  %126 = zext i8 %125 to i32
  br label %127

127:                                              ; preds = %121, %113
  %128 = phi i32 [ %120, %113 ], [ %126, %121 ]
  store i32 %128, ptr %12, align 4
  %129 = load ptr, ptr %14, align 8
  %130 = load i32, ptr @hf_ulmap_ofdma_sym, align 4
  %131 = load ptr, ptr %10, align 8
  %132 = load i32, ptr %11, align 4
  %133 = sdiv i32 %132, 2
  %134 = load i32, ptr %11, align 4
  %135 = and i32 %134, 1
  %136 = add i32 1, %135
  %137 = add i32 %136, 2
  %138 = sdiv i32 %137, 2
  %139 = load i32, ptr %12, align 4
  %140 = call ptr @proto_tree_add_uint(ptr noundef %129, i32 noundef %130, ptr noundef %131, i32 noundef %133, i32 noundef %138, i32 noundef %139)
  %141 = load i32, ptr %11, align 4
  %142 = add i32 %141, 2
  store i32 %142, ptr %11, align 4
  %143 = load ptr, ptr %14, align 8
  %144 = load ptr, ptr %10, align 8
  %145 = load i32, ptr %11, align 4
  %146 = sdiv i32 %145, 2
  %147 = load i32, ptr %11, align 4
  %148 = and i32 %147, 1
  %149 = add i32 1, %148
  %150 = load i32, ptr %9, align 4
  %151 = load i32, ptr %11, align 4
  %152 = sub i32 %150, %151
  %153 = add i32 %149, %152
  %154 = sdiv i32 %153, 2
  %155 = load i32, ptr @ett_306_ul, align 4
  %156 = load i32, ptr %9, align 4
  %157 = load i32, ptr %11, align 4
  %158 = sub i32 %156, %157
  %159 = sdiv i32 %158, 2
  %160 = call ptr (ptr, ptr, i32, i32, i32, ptr, ptr, ...) @proto_tree_add_subtree_format(ptr noundef %143, ptr noundef %144, i32 noundef %146, i32 noundef %154, i32 noundef %155, ptr noundef null, ptr noundef @.str.11, i32 noundef %159)
  store ptr %160, ptr %15, align 8
  br label %161

161:                                              ; preds = %166, %127
  %162 = load i32, ptr %11, align 4
  %163 = load i32, ptr %9, align 4
  %164 = sub i32 %163, 1
  %165 = icmp slt i32 %162, %164
  br i1 %165, label %166, label %177

166:                                              ; preds = %161
  %167 = load ptr, ptr %15, align 8
  %168 = load ptr, ptr %7, align 8
  %169 = load i32, ptr %11, align 4
  %170 = load i32, ptr %9, align 4
  %171 = load i32, ptr %11, align 4
  %172 = sub i32 %170, %171
  %173 = load ptr, ptr %10, align 8
  %174 = call i32 @dissect_ulmap_ie(ptr noundef %167, ptr noundef %168, i32 noundef %169, i32 noundef %172, ptr noundef %173)
  %175 = load i32, ptr %11, align 4
  %176 = add i32 %175, %174
  store i32 %176, ptr %11, align 4
  br label %161, !llvm.loop !20

177:                                              ; preds = %161
  %178 = load i32, ptr %11, align 4
  %179 = and i32 %178, 1
  %180 = icmp ne i32 %179, 0
  br i1 %180, label %181, label %195

181:                                              ; preds = %177
  %182 = load ptr, ptr %14, align 8
  %183 = load i32, ptr @hf_ulmap_padding, align 4
  %184 = load ptr, ptr %10, align 8
  %185 = load i32, ptr %11, align 4
  %186 = sdiv i32 %185, 2
  %187 = load i32, ptr %11, align 4
  %188 = and i32 %187, 1
  %189 = add i32 1, %188
  %190 = add i32 %189, 1
  %191 = sdiv i32 %190, 2
  %192 = call ptr (ptr, i32, ptr, i32, i32, ptr, ptr, ...) @proto_tree_add_bytes_format(ptr noundef %182, i32 noundef %183, ptr noundef %184, i32 noundef %186, i32 noundef %191, ptr noundef null, ptr noundef @.str.12)
  %193 = load i32, ptr %11, align 4
  %194 = add i32 %193, 1
  store i32 %194, ptr %11, align 4
  br label %195

195:                                              ; preds = %181, %177
  %196 = load i32, ptr %9, align 4
  call void @llvm.lifetime.end.p0(i64 8, ptr %15) #5
  call void @llvm.lifetime.end.p0(i64 8, ptr %14) #5
  call void @llvm.lifetime.end.p0(i64 8, ptr %13) #5
  call void @llvm.lifetime.end.p0(i64 4, ptr %12) #5
  call void @llvm.lifetime.end.p0(i64 4, ptr %11) #5
  ret i32 %196
}