; Function Attrs: null_pointer_is_valid sspstrong uwtable
define hidden noundef i32 @wimax_decode_ulmapc(ptr noundef %0, ptr noundef %1, i32 noundef %2, i32 noundef returned %3, ptr noundef %4) local_unnamed_addr #1 {
  %6 = load i32, ptr @proto_mac_mgmt_msg_ulmap_decoder, align 4
  %7 = sdiv i32 %2, 2
  %8 = and i32 %2, 1
  %9 = add nuw nsw i32 %8, 1
  %10 = sub i32 %3, %2
  %11 = add i32 %9, %10
  %12 = sdiv i32 %11, 2
  %13 = sdiv i32 %10, 2
  %14 = tail call ptr (ptr, i32, ptr, i32, i32, ptr, ...) @proto_tree_add_protocol_format(ptr noundef %0, i32 noundef %6, ptr noundef %4, i32 noundef %7, i32 noundef %12, ptr noundef nonnull @.str.10, i32 noundef %13)
  %15 = load i32, ptr @ett_306, align 4
  %16 = tail call ptr @proto_item_add_subtree(ptr noundef %14, i32 noundef %15)
  %.not = icmp eq i32 %8, 0
  br i1 %.not, label %22, label %17

17:                                               ; preds = %5
  %18 = tail call zeroext i16 @tvb_get_ntohs(ptr noundef %4, i32 noundef %7)
  %19 = lshr i16 %18, 4
  %20 = and i16 %19, 255
  %21 = zext nneg i16 %20 to i32
  br label %25

22:                                               ; preds = %5
  %23 = tail call zeroext i8 @tvb_get_uint8(ptr noundef %4, i32 noundef %7)
  %24 = zext i8 %23 to i32
  br label %25

25:                                               ; preds = %22, %17
  %26 = phi i32 [ %21, %17 ], [ %24, %22 ]
  %27 = load i32, ptr @hf_ulmap_ucd_count, align 4
  %28 = add nuw nsw i32 %8, 3
  %29 = lshr i32 %28, 1
  %30 = tail call ptr @proto_tree_add_uint(ptr noundef %16, i32 noundef %27, ptr noundef %4, i32 noundef %7, i32 noundef %29, i32 noundef %26)
  %31 = add i32 %2, 2
  br i1 %.not, label %41, label %32

32:                                               ; preds = %25
  %33 = sdiv i32 %31, 2
  %34 = tail call i32 @tvb_get_ntohl(ptr noundef %4, i32 noundef %33)
  %35 = shl i32 %34, 4
  %36 = add nsw i32 %33, 4
  %37 = tail call zeroext i8 @tvb_get_uint8(ptr noundef %4, i32 noundef %36)
  %38 = lshr i8 %37, 4
  %39 = zext nneg i8 %38 to i32
  %40 = or disjoint i32 %35, %39
  br label %44

41:                                               ; preds = %25
  %42 = ashr exact i32 %31, 1
  %43 = tail call i32 @tvb_get_ntohl(ptr noundef %4, i32 noundef %42)
  %.pre = ashr exact i32 %31, 1
  br label %44

44:                                               ; preds = %41, %32
  %.pre-phi = phi i32 [ %.pre, %41 ], [ %33, %32 ]
  %45 = phi i32 [ %43, %41 ], [ %40, %32 ]
  %46 = load i32, ptr @hf_ulmap_alloc_start_time, align 4
  %47 = add nuw nsw i32 %8, 9
  %48 = lshr i32 %47, 1
  %49 = tail call ptr @proto_tree_add_uint(ptr noundef %16, i32 noundef %46, ptr noundef %4, i32 noundef %.pre-phi, i32 noundef %48, i32 noundef %45)
  %50 = add i32 %2, 10
  br i1 %.not, label %57, label %51

51:                                               ; preds = %44
  %52 = sdiv i32 %50, 2
  %53 = tail call zeroext i16 @tvb_get_ntohs(ptr noundef %4, i32 noundef %52)
  %54 = lshr i16 %53, 4
  %55 = and i16 %54, 255
  %56 = zext nneg i16 %55 to i32
  br label %61

57:                                               ; preds = %44
  %58 = ashr exact i32 %50, 1
  %59 = tail call zeroext i8 @tvb_get_uint8(ptr noundef %4, i32 noundef %58)
  %60 = zext i8 %59 to i32
  %.pre73 = ashr exact i32 %50, 1
  br label %61

61:                                               ; preds = %57, %51
  %.pre-phi74 = phi i32 [ %.pre73, %57 ], [ %52, %51 ]
  %62 = phi i32 [ %60, %57 ], [ %56, %51 ]
  %63 = load i32, ptr @hf_ulmap_ofdma_sym, align 4
  %64 = tail call ptr @proto_tree_add_uint(ptr noundef %16, i32 noundef %63, ptr noundef %4, i32 noundef %.pre-phi74, i32 noundef %29, i32 noundef %62)
  %65 = add i32 %2, 12
  %66 = sdiv i32 %65, 2
  %67 = sub i32 %3, %65
  %68 = add i32 %9, %67
  %69 = sdiv i32 %68, 2
  %70 = load i32, ptr @ett_306_ul, align 4
  %71 = sdiv i32 %67, 2
  %72 = tail call ptr (ptr, ptr, i32, i32, i32, ptr, ptr, ...) @proto_tree_add_subtree_format(ptr noundef %16, ptr noundef %4, i32 noundef %66, i32 noundef %69, i32 noundef %70, ptr noundef null, ptr noundef nonnull @.str.11, i32 noundef %71)
  %73 = add i32 %3, -1
  %74 = icmp slt i32 %65, %73
  br i1 %74, label %.lr.ph, label %._crit_edge

.lr.ph:                                           ; preds = %61, %.lr.ph
  %.072 = phi i32 [ %76, %.lr.ph ], [ %65, %61 ]
  %75 = tail call i32 @dissect_ulmap_ie(ptr noundef %72, ptr noundef %1, i32 noundef %.072, i32 poison, ptr noundef %4)
  %76 = add i32 %75, %.072
  %77 = icmp slt i32 %76, %73
  br i1 %77, label %.lr.ph, label %._crit_edge, !llvm.loop !23

._crit_edge:                                      ; preds = %.lr.ph, %61
  %.0.lcssa = phi i32 [ %65, %61 ], [ %76, %.lr.ph ]
  %78 = and i32 %.0.lcssa, 1
  %.not71 = icmp eq i32 %78, 0
  br i1 %.not71, label %83, label %79

79:                                               ; preds = %._crit_edge
  %80 = load i32, ptr @hf_ulmap_padding, align 4
  %81 = sdiv i32 %.0.lcssa, 2
  %82 = tail call ptr (ptr, i32, ptr, i32, i32, ptr, ptr, ...) @proto_tree_add_bytes_format(ptr noundef %16, i32 noundef %80, ptr noundef %4, i32 noundef %81, i32 noundef 1, ptr noundef null, ptr noundef nonnull @.str.12)
  br label %83

83:                                               ; preds = %79, %._crit_edge
  ret i32 %3
}